; Function Attrs: mustprogress uwtable
define void @_ZN3gmx20compareKeyValueTreesEPNS_10TextWriterERKNS_18KeyValueTreeObjectES4_ff(ptr noundef %0, ptr noundef nonnull align 8 dereferenceable(72) %1, ptr noundef nonnull align 8 dereferenceable(72) %2, float noundef %3, float noundef %4) local_unnamed_addr #0 personality ptr @__gxx_personality_v0 {
  %6 = alloca %"class.gmx::(anonymous namespace)::CompareHelper", align 8
  call void @llvm.lifetime.start.p0(i64 40, ptr nonnull %6) #17
  call void @llvm.memset.p0.i64(ptr noundef nonnull align 8 dereferenceable(40) %6, i8 0, i64 24, i1 false)
  %7 = getelementptr inbounds nuw i8, ptr %6, i64 24
  store ptr %0, ptr %7, align 8, !tbaa !56
  %8 = getelementptr inbounds nuw i8, ptr %6, i64 32
  store float %3, ptr %8, align 8, !tbaa !65
  %9 = getelementptr inbounds nuw i8, ptr %6, i64 36
  store float %4, ptr %9, align 4, !tbaa !66
  invoke fastcc void @_ZN3gmx12_GLOBAL__N_113CompareHelper14compareObjectsERKNS_18KeyValueTreeObjectES4_(ptr noundef nonnull align 8 dereferenceable(40) %6, ptr noundef nonnull align 8 dereferenceable(72) %1, ptr noundef nonnull align 8 dereferenceable(72) %2)
          to label %10 unwind label %30

10:                                               ; preds = %5
  %11 = load ptr, ptr %6, align 8, !tbaa !67
  %12 = getelementptr inbounds nuw i8, ptr %6, i64 8
  %13 = load ptr, ptr %12, align 8, !tbaa !68
  %.not4.i.i.i.i.i.i = icmp eq ptr %11, %13
  br i1 %.not4.i.i.i.i.i.i, label %_ZSt8_DestroyIPNSt7__cxx1112basic_stringIcSt11char_traitsIcESaIcEEES5_EvT_S7_RSaIT0_E.exit.i.i.i, label %.lr.ph.i.i.i.i.i.i

.lr.ph.i.i.i.i.i.i:                               ; preds = %10, %_ZSt8_DestroyINSt7__cxx1112basic_stringIcSt11char_traitsIcESaIcEEEEvPT_.exit.i.i.i.i.i.i
  %.05.i.i.i.i.i.i = phi ptr [ %22, %_ZSt8_DestroyINSt7__cxx1112basic_stringIcSt11char_traitsIcESaIcEEEEvPT_.exit.i.i.i.i.i.i ], [ %11, %10 ]
  %14 = load ptr, ptr %.05.i.i.i.i.i.i, align 8, !tbaa !12
  %15 = getelementptr inbounds nuw i8, ptr %.05.i.i.i.i.i.i, i64 16
  %16 = icmp eq ptr %14, %15
  br i1 %16, label %_ZNKSt7__cxx1112basic_stringIcSt11char_traitsIcESaIcEE11_M_is_localEv.exit.thread.i.i.i.i.i.i.i.i.i, label %_ZNKSt7__cxx1112basic_stringIcSt11char_traitsIcESaIcEE11_M_is_localEv.exit.i.i.i.i.i.i.i.i.i

_ZNKSt7__cxx1112basic_stringIcSt11char_traitsIcESaIcEE11_M_is_localEv.exit.thread.i.i.i.i.i.i.i.i.i: ; preds = %.lr.ph.i.i.i.i.i.i
  %17 = getelementptr inbounds nuw i8, ptr %.05.i.i.i.i.i.i, i64 8
  %18 = load i64, ptr %17, align 8, !tbaa !15
  %19 = icmp ult i64 %18, 16
  call void @llvm.assume(i1 %19)
  br label %_ZSt8_DestroyINSt7__cxx1112basic_stringIcSt11char_traitsIcESaIcEEEEvPT_.exit.i.i.i.i.i.i

_ZNKSt7__cxx1112basic_stringIcSt11char_traitsIcESaIcEE11_M_is_localEv.exit.i.i.i.i.i.i.i.i.i: ; preds = %.lr.ph.i.i.i.i.i.i
  %20 = load i64, ptr %15, align 8, !tbaa !14
  %21 = add i64 %20, 1
  call void @_ZdlPvm(ptr noundef %14, i64 noundef %21) #19
  br label %_ZSt8_DestroyINSt7__cxx1112basic_stringIcSt11char_traitsIcESaIcEEEEvPT_.exit.i.i.i.i.i.i

_ZSt8_DestroyINSt7__cxx1112basic_stringIcSt11char_traitsIcESaIcEEEEvPT_.exit.i.i.i.i.i.i: ; preds = %_ZNKSt7__cxx1112basic_stringIcSt11char_traitsIcESaIcEE11_M_is_localEv.exit.i.i.i.i.i.i.i.i.i, %_ZNKSt7__cxx1112basic_stringIcSt11char_traitsIcESaIcEE11_M_is_localEv.exit.thread.i.i.i.i.i.i.i.i.i
  %22 = getelementptr inbounds nuw i8, ptr %.05.i.i.i.i.i.i, i64 32
  %.not.i.i.i.i.i.i = icmp eq ptr %22, %13
  br i1 %.not.i.i.i.i.i.i, label %_ZSt8_DestroyIPNSt7__cxx1112basic_stringIcSt11char_traitsIcESaIcEEES5_EvT_S7_RSaIT0_E.exitthread-pre-split.i.i.i, label %.lr.ph.i.i.i.i.i.i, !llvm.loop !69

_ZSt8_DestroyIPNSt7__cxx1112basic_stringIcSt11char_traitsIcESaIcEEES5_EvT_S7_RSaIT0_E.exitthread-pre-split.i.i.i: ; preds = %_ZSt8_DestroyINSt7__cxx1112basic_stringIcSt11char_traitsIcESaIcEEEEvPT_.exit.i.i.i.i.i.i
  %.pr.i.i.i = load ptr, ptr %6, align 8, !tbaa !67
  br label %_ZSt8_DestroyIPNSt7__cxx1112basic_stringIcSt11char_traitsIcESaIcEEES5_EvT_S7_RSaIT0_E.exit.i.i.i

_ZSt8_DestroyIPNSt7__cxx1112basic_stringIcSt11char_traitsIcESaIcEEES5_EvT_S7_RSaIT0_E.exit.i.i.i: ; preds = %_ZSt8_DestroyIPNSt7__cxx1112basic_stringIcSt11char_traitsIcESaIcEEES5_EvT_S7_RSaIT0_E.exitthread-pre-split.i.i.i, %10
  %23 = phi ptr [ %.pr.i.i.i, %_ZSt8_DestroyIPNSt7__cxx1112basic_stringIcSt11char_traitsIcESaIcEEES5_EvT_S7_RSaIT0_E.exitthread-pre-split.i.i.i ], [ %11, %10 ]
  %.not.i.i.i.i.i = icmp eq ptr %23, null
  br i1 %.not.i.i.i.i.i, label %_ZN3gmx12_GLOBAL__N_113CompareHelperD2Ev.exit, label %24

24:                                               ; preds = %_ZSt8_DestroyIPNSt7__cxx1112basic_stringIcSt11char_traitsIcESaIcEEES5_EvT_S7_RSaIT0_E.exit.i.i.i
  %25 = getelementptr inbounds nuw i8, ptr %6, i64 16
  %26 = load ptr, ptr %25, align 8, !tbaa !70
  %27 = ptrtoint ptr %26 to i64
  %28 = ptrtoint ptr %23 to i64
  %29 = sub i64 %27, %28
  call void @_ZdlPvm(ptr noundef nonnull %23, i64 noundef %29) #19
  br label %_ZN3gmx12_GLOBAL__N_113CompareHelperD2Ev.exit

_ZN3gmx12_GLOBAL__N_113CompareHelperD2Ev.exit:    ; preds = %_ZSt8_DestroyIPNSt7__cxx1112basic_stringIcSt11char_traitsIcESaIcEEES5_EvT_S7_RSaIT0_E.exit.i.i.i, %24
  call void @llvm.lifetime.end.p0(i64 40, ptr nonnull %6) #17
  ret void

30:                                               ; preds = %5
  %31 = landingpad { ptr, i32 }
          cleanup
  call fastcc void @_ZN3gmx12_GLOBAL__N_113CompareHelperD2Ev(ptr noundef nonnull align 8 dereferenceable(40) %6) #17
  call void @llvm.lifetime.end.p0(i64 40, ptr nonnull %6) #17
  resume { ptr, i32 } %31
}